Certificate:
    Data:
        Version: 3 (0x2)
        Serial Number: 1 (0x1)
        Signature Algorithm: sha256WithRSAEncryption
        Issuer: CN=The Bikeshed CA (Hammer 1)
        Validity
            Not Before: Nov 27 22:30:04 2015 GMT
            Not After : Nov 24 22:30:04 2025 GMT
        Subject: CN=vpn.thebikeshed.io
        Subject Public Key Info:
            Public Key Algorithm: rsaEncryption
            RSA Public Key: (2048 bit)
                Modulus (2048 bit):
                    00:b7:48:a2:32:2e:f5:22:d9:56:66:9c:1e:c8:c7:
                    63:06:37:7e:11:49:ca:1f:ed:cb:de:78:cd:62:9e:
                    00:7d:c9:a6:29:6a:08:44:60:d9:74:fd:d3:79:de:
                    ed:75:ce:50:65:a2:91:9a:cd:e7:1d:0b:90:d3:76:
                    bf:74:f5:b5:2b:30:51:b1:35:18:cd:14:f2:a0:46:
                    d9:90:6b:69:03:76:e1:ca:83:3b:b2:53:b2:a2:20:
                    a7:2b:c4:30:50:b4:09:c2:c7:18:2d:71:9a:c6:db:
                    88:49:93:0f:e9:ee:b9:d5:72:ad:be:ef:c1:af:9e:
                    22:3a:01:71:b3:4e:4e:71:d5:4e:d5:4f:18:d1:85:
                    37:46:ff:db:a4:96:59:82:cf:fa:c4:15:2c:e7:ff:
                    7d:98:50:49:77:d8:e1:b6:73:fd:ff:8a:a5:4a:c0:
                    8b:d3:34:e0:41:c8:d0:6e:6a:96:56:aa:e7:56:ee:
                    2d:47:cb:02:42:79:76:79:9e:fc:ca:db:d1:ed:79:
                    db:f2:c4:66:d2:a1:9a:83:6c:c4:b7:f2:57:be:6b:
                    68:94:75:cb:1d:a7:32:41:56:ce:21:3b:59:f3:44:
                    41:e8:b6:33:b8:5b:0a:bf:db:e7:72:c5:e4:af:24:
                    95:6a:e5:15:e7:b9:ba:32:20:2a:88:68:fe:eb:dd:
                    7c:a5
                Exponent: 65537 (0x10001)
        X509v3 extensions:
            X509v3 Basic Constraints: 
                CA:FALSE
            X509v3 Subject Key Identifier: 
                BE:68:E0:21:A1:45:AD:0C:4F:E5:BE:7B:9E:A9:0A:F9:CD:EF:FC:E4
            X509v3 Authority Key Identifier: 
                keyid:05:72:D4:A3:54:1E:6B:F0:E8:42:BF:6F:C7:77:A6:95:E3:9D:D3:B2
                DirName:/CN=The Bikeshed CA (Hammer 1)
                serial:B0:F8:90:0D:EE:87:48:77

            X509v3 Extended Key Usage: 
                TLS Web Server Authentication
            X509v3 Key Usage: 
                Digital Signature, Key Encipherment
    Signature Algorithm: sha256WithRSAEncryption
        64:84:6d:f8:f9:10:6c:57:26:11:1c:6d:c3:4e:91:98:bc:21:
        a9:eb:f7:c1:6b:33:ac:92:50:ae:4c:e3:85:e4:2d:44:ed:8b:
        1f:8d:4a:0f:bd:77:ba:ba:f0:51:7c:1e:36:af:a6:e9:68:74:
        e8:6b:4b:70:8a:19:39:d7:21:1b:77:1b:f6:1d:93:25:f6:11:
        c2:1e:79:83:91:26:a5:29:cc:0c:57:df:43:cb:37:5c:1b:3a:
        b8:8e:74:13:19:fe:36:cf:36:08:51:28:f4:7d:7a:32:c7:4a:
        ea:4e:55:2b:d1:e8:f2:4f:fb:92:47:a9:6b:06:a7:eb:48:85:
        f4:65:09:04:31:62:31:5d:81:fc:9b:e8:17:48:78:21:31:e4:
        51:0c:73:1f:7b:43:b0:98:e2:e2:64:59:a1:6d:ea:52:0e:96:
        25:34:a0:53:e5:07:b3:16:c3:24:98:f2:c9:a6:0f:f9:12:20:
        12:3f:1b:1c:b3:98:d3:5e:62:9a:8f:3e:cf:58:fb:9e:85:36:
        70:62:e7:7d:b8:43:6b:12:61:3f:0d:04:dc:2c:95:8b:b3:66:
        81:63:76:b4:23:08:5c:b2:dc:a9:3d:84:eb:24:96:84:ca:fd:
        ff:c1:42:20:97:ed:c0:94:fa:92:83:2d:b8:2d:9c:61:62:f2:
        78:e3:de:58
-----BEGIN CERTIFICATE-----
MIIDZDCCAkygAwIBAgIBATANBgkqhkiG9w0BAQsFADAlMSMwIQYDVQQDDBpUaGUg
QmlrZXNoZWQgQ0EgKEhhbW1lciAxKTAeFw0xNTExMjcyMjMwMDRaFw0yNTExMjQy
MjMwMDRaMB0xGzAZBgNVBAMMEnZwbi50aGViaWtlc2hlZC5pbzCCASIwDQYJKoZI
hvcNAQEBBQADggEPADCCAQoCggEBALdIojIu9SLZVmacHsjHYwY3fhFJyh/ty954
zWKeAH3JpilqCERg2XT903ne7XXOUGWikZrN5x0LkNN2v3T1tSswUbE1GM0U8qBG
2ZBraQN24cqDO7JTsqIgpyvEMFC0CcLHGC1xmsbbiEmTD+nuudVyrb7vwa+eIjoB
cbNOTnHVTtVPGNGFN0b/26SWWYLP+sQVLOf/fZhQSXfY4bZz/f+KpUrAi9M04EHI
0G5qllaq51buLUfLAkJ5dnme/Mrb0e152/LEZtKhmoNsxLfyV75raJR1yx2nMkFW
ziE7WfNEQei2M7hbCr/b53LF5K8klWrlFee5ujIgKoho/uvdfKUCAwEAAaOBpjCB
ozAJBgNVHRMEAjAAMB0GA1UdDgQWBBS+aOAhoUWtDE/lvnueqQr5ze/85DBVBgNV
HSMETjBMgBQFctSjVB5r8OhCv2/Hd6aV453TsqEppCcwJTEjMCEGA1UEAwwaVGhl
IEJpa2VzaGVkIENBIChIYW1tZXIgMSmCCQCw+JAN7odIdzATBgNVHSUEDDAKBggr
BgEFBQcDATALBgNVHQ8EBAMCBaAwDQYJKoZIhvcNAQELBQADggEBAGSEbfj5EGxX
JhEcbcNOkZi8Ianr98FrM6ySUK5M44XkLUTtix+NSg+9d7q68FF8HjavpulodOhr
S3CKGTnXIRt3G/YdkyX2EcIeeYORJqUpzAxX30PLN1wbOriOdBMZ/jbPNghRKPR9
ejLHSupOVSvR6PJP+5JHqWsGp+tIhfRlCQQxYjFdgfyb6BdIeCEx5FEMcx97Q7CY
4uJkWaFt6lIOliU0oFPlB7MWwySY8smmD/kSIBI/GxyzmNNeYpqPPs9Y+56FNnBi
5324Q2sSYT8NBNwslYuzZoFjdrQjCFyy3Kk9hOskloTK/f/BQiCX7cCU+pKDLbgt
nGFi8njj3lg=
-----END CERTIFICATE-----
