Certificate:
    Data:
        Version: 3 (0x2)
        Serial Number: 3 (0x3)
        Signature Algorithm: sha256WithRSAEncryption
        Issuer: CN=The Bikeshed CA (Hammer 1)
        Validity
            Not Before: Nov 28 16:00:53 2015 GMT
            Not After : Nov 25 16:00:53 2025 GMT
        Subject: CN=fryphone
        Subject Public Key Info:
            Public Key Algorithm: rsaEncryption
            RSA Public Key: (2048 bit)
                Modulus (2048 bit):
                    00:b4:5a:0a:25:13:77:8e:d7:ce:2d:69:3f:c5:94:
                    f4:6f:43:39:4e:34:8f:aa:5a:74:10:fd:1c:73:9c:
                    ef:2d:ef:8e:24:e8:7b:fb:c5:e9:a7:d8:32:c0:5b:
                    d4:ca:0e:39:71:c0:56:a1:20:1f:2b:5f:ba:14:b0:
                    47:88:d3:f9:96:40:5e:43:2a:2f:be:95:98:59:b3:
                    cc:32:07:85:7c:ae:06:24:fd:74:33:cf:e4:a6:c1:
                    4e:ed:98:f2:7e:f0:af:f5:da:0b:a7:4f:11:b1:2c:
                    37:12:c5:f6:25:5e:bd:e0:e2:34:74:ac:80:27:8b:
                    45:cd:91:11:f6:b7:20:c0:a4:c1:37:84:99:92:5b:
                    99:19:be:7a:db:8e:2c:89:e1:53:41:51:b7:2c:71:
                    a6:a3:dc:47:3c:a5:e4:d1:51:a7:ab:f9:52:90:97:
                    b8:d9:ad:47:af:9e:5b:51:05:3e:cc:70:50:f6:14:
                    4e:01:76:d2:da:30:c3:39:58:2a:31:06:3b:0d:cc:
                    c7:f9:d3:ce:4c:f8:da:6f:c8:e6:ff:e5:9b:23:40:
                    9f:ae:a2:07:f5:e6:dd:17:39:50:a6:47:cc:ed:28:
                    ab:ed:3e:91:7d:38:8a:b9:0a:c0:9b:7b:b6:1d:ea:
                    39:f4:b3:8a:95:ba:41:76:75:2d:1c:93:1e:75:a6:
                    97:43
                Exponent: 65537 (0x10001)
        X509v3 extensions:
            X509v3 Basic Constraints: 
                CA:FALSE
            X509v3 Subject Key Identifier: 
                9D:0F:0B:D3:88:4E:EF:10:1D:B5:26:B8:7B:73:08:61:A4:AE:6A:1E
            X509v3 Authority Key Identifier: 
                keyid:05:72:D4:A3:54:1E:6B:F0:E8:42:BF:6F:C7:77:A6:95:E3:9D:D3:B2
                DirName:/CN=The Bikeshed CA (Hammer 1)
                serial:B0:F8:90:0D:EE:87:48:77

            X509v3 Extended Key Usage: 
                TLS Web Client Authentication
            X509v3 Key Usage: 
                Digital Signature
    Signature Algorithm: sha256WithRSAEncryption
        6b:d7:8e:56:29:1d:d2:50:63:61:6e:f8:57:ec:99:f9:01:f6:
        9d:c1:c8:1d:70:fd:af:08:46:02:25:30:f0:53:12:d4:08:fb:
        38:7b:b4:97:f1:9f:10:79:74:a2:91:4a:9a:54:02:68:d1:a4:
        84:96:ac:ee:ba:aa:f7:59:a5:07:71:26:76:62:a8:35:c3:d6:
        bc:35:0a:6f:0b:9f:a6:30:d3:63:14:e8:6f:ab:ae:ed:84:96:
        63:c3:f1:02:f4:2b:06:61:69:6c:ff:03:1c:89:ae:d1:3e:23:
        82:bd:68:3e:b0:14:f2:01:85:32:4e:b6:5d:f2:28:7d:bf:c0:
        c5:fa:c9:f8:73:6b:6c:41:84:df:d1:26:e8:f9:ae:36:65:52:
        61:af:69:dd:9b:70:b1:4d:15:ab:ce:26:94:50:2c:b3:f8:f0:
        49:c5:0c:be:3b:63:f0:8a:74:68:ab:88:27:be:c5:82:ca:47:
        e4:da:73:7e:a6:9a:a6:64:79:20:c1:53:02:db:6f:40:bc:de:
        77:9e:4c:d4:87:8e:d9:3f:92:3b:94:64:c6:3f:95:54:4f:74:
        02:19:0b:8c:2c:fc:cd:9d:84:f7:db:76:49:24:1d:39:b0:4b:
        21:7c:de:34:87:c0:39:90:6a:e2:96:b2:53:20:53:a7:0f:15:
        c3:ab:09:b8
-----BEGIN CERTIFICATE-----
MIIDWjCCAkKgAwIBAgIBAzANBgkqhkiG9w0BAQsFADAlMSMwIQYDVQQDDBpUaGUg
QmlrZXNoZWQgQ0EgKEhhbW1lciAxKTAeFw0xNTExMjgxNjAwNTNaFw0yNTExMjUx
NjAwNTNaMBMxETAPBgNVBAMMCGZyeXBob25lMIIBIjANBgkqhkiG9w0BAQEFAAOC
AQ8AMIIBCgKCAQEAtFoKJRN3jtfOLWk/xZT0b0M5TjSPqlp0EP0cc5zvLe+OJOh7
+8Xpp9gywFvUyg45ccBWoSAfK1+6FLBHiNP5lkBeQyovvpWYWbPMMgeFfK4GJP10
M8/kpsFO7ZjyfvCv9doLp08RsSw3EsX2JV694OI0dKyAJ4tFzZER9rcgwKTBN4SZ
kluZGb56244sieFTQVG3LHGmo9xHPKXk0VGnq/lSkJe42a1Hr55bUQU+zHBQ9hRO
AXbS2jDDOVgqMQY7DczH+dPOTPjab8jm/+WbI0CfrqIH9ebdFzlQpkfM7Sir7T6R
fTiKuQrAm3u2Heo59LOKlbpBdnUtHJMedaaXQwIDAQABo4GmMIGjMAkGA1UdEwQC
MAAwHQYDVR0OBBYEFJ0PC9OITu8QHbUmuHtzCGGkrmoeMFUGA1UdIwROMEyAFAVy
1KNUHmvw6EK/b8d3ppXjndOyoSmkJzAlMSMwIQYDVQQDDBpUaGUgQmlrZXNoZWQg
Q0EgKEhhbW1lciAxKYIJALD4kA3uh0h3MBMGA1UdJQQMMAoGCCsGAQUFBwMCMAsG
A1UdDwQEAwIHgDANBgkqhkiG9w0BAQsFAAOCAQEAa9eOVikd0lBjYW74V+yZ+QH2
ncHIHXD9rwhGAiUw8FMS1Aj7OHu0l/GfEHl0opFKmlQCaNGkhJas7rqq91mlB3Em
dmKoNcPWvDUKbwufpjDTYxTob6uu7YSWY8PxAvQrBmFpbP8DHImu0T4jgr1oPrAU
8gGFMk62XfIofb/AxfrJ+HNrbEGE39Em6PmuNmVSYa9p3ZtwsU0Vq84mlFAss/jw
ScUMvjtj8Ip0aKuIJ77FgspH5NpzfqaapmR5IMFTAttvQLzed55M1IeO2T+SO5Rk
xj+VVE90AhkLjCz8zZ2E99t2SSQdObBLIXzeNIfAOZBq4payUyBTpw8Vw6sJuA==
-----END CERTIFICATE-----
