Certificate:
    Data:
        Version: 3 (0x2)
        Serial Number: 2 (0x2)
        Signature Algorithm: sha256WithRSAEncryption
        Issuer: CN=The Bikeshed CA (Hammer 1)
        Validity
            Not Before: Nov 27 22:50:02 2015 GMT
            Not After : Nov 24 22:50:02 2025 GMT
        Subject: CN=frybook
        Subject Public Key Info:
            Public Key Algorithm: rsaEncryption
            RSA Public Key: (2048 bit)
                Modulus (2048 bit):
                    00:ca:41:0a:38:9c:ae:17:3d:db:84:5b:e9:36:af:
                    6d:af:5e:70:e3:f2:a7:0d:ba:4f:aa:9f:5d:b0:d5:
                    b8:e0:12:bb:8b:86:f7:67:32:f5:af:8b:2f:10:32:
                    a6:f5:b8:1c:fc:7a:24:8c:19:da:80:b2:12:a0:48:
                    45:4a:77:ce:48:12:a3:05:3a:df:10:78:02:98:f7:
                    46:d0:aa:4a:62:67:05:4b:13:e2:8d:7c:e9:d9:77:
                    92:93:c7:ec:f9:7f:bd:8e:42:a9:26:2b:93:e2:5c:
                    0b:c3:de:45:31:d1:27:ac:64:0a:e6:e5:99:25:56:
                    06:54:38:a9:1a:99:0f:8a:ef:09:7c:87:f2:69:7a:
                    84:ea:46:89:14:bf:4d:46:ce:13:0c:70:99:c4:84:
                    9a:aa:b6:50:30:16:da:a2:a8:bc:4f:04:74:f9:c4:
                    d2:ec:94:d3:21:8b:a9:54:7b:eb:8c:92:9a:1a:e9:
                    65:00:33:ca:00:23:84:44:6e:de:5d:c2:d3:be:b2:
                    0e:37:2f:6f:b7:4a:ab:06:70:98:45:54:98:4c:9a:
                    c9:1e:0c:b5:80:7d:ba:31:16:01:71:05:f5:c7:ca:
                    1d:28:27:44:0b:06:07:da:de:db:1e:1d:05:d1:ba:
                    e3:88:05:c6:c7:41:ba:6a:e7:34:76:70:34:44:d8:
                    4a:6b
                Exponent: 65537 (0x10001)
        X509v3 extensions:
            X509v3 Basic Constraints: 
                CA:FALSE
            X509v3 Subject Key Identifier: 
                8E:F0:A9:50:DD:F3:F2:09:D9:06:6B:47:2B:48:14:6A:D0:3E:61:1B
            X509v3 Authority Key Identifier: 
                keyid:05:72:D4:A3:54:1E:6B:F0:E8:42:BF:6F:C7:77:A6:95:E3:9D:D3:B2
                DirName:/CN=The Bikeshed CA (Hammer 1)
                serial:B0:F8:90:0D:EE:87:48:77

            X509v3 Extended Key Usage: 
                TLS Web Client Authentication
            X509v3 Key Usage: 
                Digital Signature
    Signature Algorithm: sha256WithRSAEncryption
        51:23:84:a7:cc:46:ec:c9:81:3c:05:e1:dd:b1:02:3f:76:f0:
        19:f6:c9:32:f9:c8:b5:0f:5c:6c:24:8a:db:13:7c:d7:cb:61:
        b8:31:6f:28:d6:ff:0c:e7:b1:0f:25:74:5d:b4:e6:4e:94:7b:
        80:6c:88:da:d8:99:55:f0:16:3f:78:c3:9d:e5:bc:50:14:11:
        d8:f3:4c:cd:10:8d:e8:a1:82:85:3a:f8:73:d4:c7:0c:8c:9e:
        14:4f:52:07:a5:b2:28:01:8c:1b:eb:8e:1a:cd:62:37:aa:79:
        6d:6b:ff:51:fa:71:7a:c6:8c:a5:a1:b6:99:e3:37:17:93:49:
        9a:cb:14:c6:77:3e:46:f5:4f:f0:a3:48:9c:bc:36:2a:4f:29:
        d1:12:7a:78:a4:06:0e:aa:59:5b:b2:c0:34:4e:82:a7:10:39:
        98:5e:66:2a:39:2e:e3:65:3d:5c:94:c8:a3:03:de:be:16:1a:
        58:33:55:de:13:6c:dc:30:b4:c4:a4:5d:d8:1e:80:11:94:80:
        db:5c:d7:47:ee:67:73:04:e3:24:19:27:7b:f4:a1:3a:0a:83:
        81:dc:33:2a:0c:7a:22:e8:ff:33:cd:4c:2f:ba:94:45:b2:5b:
        42:1d:78:99:36:e5:9a:75:3a:be:bf:c8:aa:8e:c7:05:09:b7:
        c2:17:3f:6c
-----BEGIN CERTIFICATE-----
MIIDWTCCAkGgAwIBAgIBAjANBgkqhkiG9w0BAQsFADAlMSMwIQYDVQQDDBpUaGUg
QmlrZXNoZWQgQ0EgKEhhbW1lciAxKTAeFw0xNTExMjcyMjUwMDJaFw0yNTExMjQy
MjUwMDJaMBIxEDAOBgNVBAMMB2ZyeWJvb2swggEiMA0GCSqGSIb3DQEBAQUAA4IB
DwAwggEKAoIBAQDKQQo4nK4XPduEW+k2r22vXnDj8qcNuk+qn12w1bjgEruLhvdn
MvWviy8QMqb1uBz8eiSMGdqAshKgSEVKd85IEqMFOt8QeAKY90bQqkpiZwVLE+KN
fOnZd5KTx+z5f72OQqkmK5PiXAvD3kUx0SesZArm5ZklVgZUOKkamQ+K7wl8h/Jp
eoTqRokUv01GzhMMcJnEhJqqtlAwFtqiqLxPBHT5xNLslNMhi6lUe+uMkpoa6WUA
M8oAI4REbt5dwtO+sg43L2+3SqsGcJhFVJhMmskeDLWAfboxFgFxBfXHyh0oJ0QL
Bgfa3tseHQXRuuOIBcbHQbpq5zR2cDRE2EprAgMBAAGjgaYwgaMwCQYDVR0TBAIw
ADAdBgNVHQ4EFgQUjvCpUN3z8gnZBmtHK0gUatA+YRswVQYDVR0jBE4wTIAUBXLU
o1Qea/DoQr9vx3emleOd07KhKaQnMCUxIzAhBgNVBAMMGlRoZSBCaWtlc2hlZCBD
QSAoSGFtbWVyIDEpggkAsPiQDe6HSHcwEwYDVR0lBAwwCgYIKwYBBQUHAwIwCwYD
VR0PBAQDAgeAMA0GCSqGSIb3DQEBCwUAA4IBAQBRI4SnzEbsyYE8BeHdsQI/dvAZ
9sky+ci1D1xsJIrbE3zXy2G4MW8o1v8M57EPJXRdtOZOlHuAbIja2JlV8BY/eMOd
5bxQFBHY80zNEI3ooYKFOvhz1McMjJ4UT1IHpbIoAYwb644azWI3qnlta/9R+nF6
xoylobaZ4zcXk0mayxTGdz5G9U/wo0icvDYqTynREnp4pAYOqllbssA0ToKnEDmY
XmYqOS7jZT1clMijA96+FhpYM1XeE2zcMLTEpF3YHoARlIDbXNdH7mdzBOMkGSd7
9KE6CoOB3DMqDHoi6P8zzUwvupRFsltCHXiZNuWadTq+v8iqjscFCbfCFz9s
-----END CERTIFICATE-----
